target datalayout = "e-m:e-p270:32:32-p271:32:32-p272:64:64-i64:64-i128:128-f80:128-n8:16:32:64-S128"
target triple = "x86_64-pc-linux-gnu"

%struct.PyVarObject = type { %struct._object, i64 }
%struct._object = type { %union.anon, ptr }
%union.anon = type { i64 }
%struct.PyTupleObject = type { %struct.PyVarObject, [1 x ptr] }

; Function Attrs: inlinehint nounwind uwtable
define internal i64 @Py_SIZE(ptr noundef %0) #2 {
  %2 = alloca ptr, align 8
  store ptr %0, ptr %2, align 8, !tbaa !10
  %3 = load ptr, ptr %2, align 8, !tbaa !10
  %4 = getelementptr inbounds nuw %struct.PyVarObject, ptr %3, i32 0, i32 1
  %5 = load i64, ptr %4, align 8, !tbaa !108
  ret i64 %5
}

; Function Attrs: nounwind uwtable
define internal ptr @tuple_count(ptr noundef %0, ptr noundef %1) #0 {
  %3 = alloca ptr, align 8
  %4 = alloca ptr, align 8
  %5 = alloca ptr, align 8
  %6 = alloca i64, align 8
  %7 = alloca i64, align 8
  %8 = alloca i32, align 4
  %9 = alloca i32, align 4
  store ptr %0, ptr %4, align 8, !tbaa !8
  store ptr %1, ptr %5, align 8, !tbaa !10
  call void @llvm.lifetime.start.p0(i64 8, ptr %6) #9
  store i64 0, ptr %6, align 8, !tbaa !4
  call void @llvm.lifetime.start.p0(i64 8, ptr %7) #9
  store i64 0, ptr %7, align 8, !tbaa !4
  br label %10

10:                                               ; preds = %37, %2
  %11 = load i64, ptr %7, align 8, !tbaa !4
  %12 = load ptr, ptr %4, align 8, !tbaa !8
  %13 = call i64 @Py_SIZE(ptr noundef %12)
  %14 = icmp slt i64 %11, %13
  br i1 %14, label %15, label %40

15:                                               ; preds = %10
  call void @llvm.lifetime.start.p0(i64 4, ptr %8) #9
  %16 = load ptr, ptr %4, align 8, !tbaa !8
  %17 = getelementptr inbounds nuw %struct.PyTupleObject, ptr %16, i32 0, i32 1
  %18 = load i64, ptr %7, align 8, !tbaa !4
  %19 = getelementptr [1 x ptr], ptr %17, i64 0, i64 %18
  %20 = load ptr, ptr %19, align 8, !tbaa !10
  %21 = load ptr, ptr %5, align 8, !tbaa !10
  %22 = call i32 @PyObject_RichCompareBool(ptr noundef %20, ptr noundef %21, i32 noundef 2)
  store i32 %22, ptr %8, align 4, !tbaa !125
  %23 = load i32, ptr %8, align 4, !tbaa !125
  %24 = icmp sgt i32 %23, 0
  br i1 %24, label %25, label %28

25:                                               ; preds = %15
  %26 = load i64, ptr %6, align 8, !tbaa !4
  %27 = add i64 %26, 1
  store i64 %27, ptr %6, align 8, !tbaa !4
  br label %33

28:                                               ; preds = %15
  %29 = load i32, ptr %8, align 4, !tbaa !125
  %30 = icmp slt i32 %29, 0
  br i1 %30, label %31, label %32

31:                                               ; preds = %28
  store ptr null, ptr %3, align 8
  store i32 1, ptr %9, align 4
  br label %34

32:                                               ; preds = %28
  br label %33

33:                                               ; preds = %32, %25
  store i32 0, ptr %9, align 4
  br label %34

34:                                               ; preds = %33, %31
  call void @llvm.lifetime.end.p0(i64 4, ptr %8) #9
  %35 = load i32, ptr %9, align 4
  switch i32 %35, label %43 [
    i32 0, label %36
  ]

36:                                               ; preds = %34
  br label %37

37:                                               ; preds = %36
  %38 = load i64, ptr %7, align 8, !tbaa !4
  %39 = add i64 %38, 1
  store i64 %39, ptr %7, align 8, !tbaa !4
  br label %10, !llvm.loop !164

40:                                               ; preds = %10
  %41 = load i64, ptr %6, align 8, !tbaa !4
  %42 = call ptr @PyLong_FromSsize_t(i64 noundef %41)
  store ptr %42, ptr %3, align 8
  store i32 1, ptr %9, align 4
  br label %43

43:                                               ; preds = %40, %34
  call void @llvm.lifetime.end.p0(i64 8, ptr %7) #9
  call void @llvm.lifetime.end.p0(i64 8, ptr %6) #9
  %44 = load ptr, ptr %3, align 8
  ret ptr %44
}