; Function Attrs: nounwind uwtable
define internal ptr @tuple_count(ptr noundef readonly captures(none) %0, ptr noundef %1) #0 {
  %3 = getelementptr i8, ptr %0, i64 16
  %.val18 = load i64, ptr %3, align 8, !tbaa !107
  %4 = icmp sgt i64 %.val18, 0
  br i1 %4, label %.lr.ph, label %._crit_edge

.lr.ph:                                           ; preds = %2
  %5 = getelementptr inbounds nuw i8, ptr %0, i64 24
  br label %6

6:                                                ; preds = %.lr.ph, %11
  %.01220 = phi i64 [ 0, %.lr.ph ], [ %14, %11 ]
  %.01319 = phi i64 [ 0, %.lr.ph ], [ %.215, %11 ]
  %7 = getelementptr [1 x ptr], ptr %5, i64 0, i64 %.01220
  %8 = load ptr, ptr %7, align 8, !tbaa !25
  %9 = tail call i32 @PyObject_RichCompareBool(ptr noundef %8, ptr noundef %1, i32 noundef 2) #9
  %10 = icmp sgt i32 %9, -1
  br i1 %10, label %11, label %.loopexit

11:                                               ; preds = %6
  %12 = icmp ne i32 %9, 0
  %13 = zext i1 %12 to i64
  %.215 = add i64 %.01319, %13
  %14 = add nuw nsw i64 %.01220, 1
  %.val = load i64, ptr %3, align 8, !tbaa !107
  %15 = icmp slt i64 %14, %.val
  br i1 %15, label %6, label %._crit_edge, !llvm.loop !149

._crit_edge:                                      ; preds = %11, %2
  %.013.lcssa = phi i64 [ 0, %2 ], [ %.215, %11 ]
  %16 = tail call ptr @PyLong_FromSsize_t(i64 noundef %.013.lcssa) #9
  br label %.loopexit

.loopexit:                                        ; preds = %6, %._crit_edge
  %.2 = phi ptr [ %16, %._crit_edge ], [ null, %6 ]
  ret ptr %.2
}